(dp1
S'session'
p2
(dp3
S'picture'
p4
Vhttps://lh3.googleusercontent.com/-JoQ8mEV2ru8/AAAAAAAAAAI/AAAAAAAAAAA/Ym49CPGwPUc/photo.jpg
p5
sS'_accessed_time'
p6
F1540687605.9707661
sS'email'
p7
Vxuzhaoqingchina@gmail.com
p8
sS'_creation_time'
p9
F1540687603.6532631
sS'name'
p10
V\u5f90\u662d\u6e05
p11
ss.